target datalayout = "e-m:e-p270:32:32-p271:32:32-p272:64:64-i64:64-i128:128-f80:128-n8:16:32:64-S128"
target triple = "x86_64-pc-linux-gnu"

%struct.bin_info_s = type { i64, i64, i32, i32, %struct.bitmap_info_s }
%struct.bitmap_info_s = type { i64, i64 }
%struct.malloc_mutex_s = type { %union.anon }
%union.anon = type { %struct.anon.1 }
%struct.anon.1 = type { %struct.mutex_prof_data_t, %union.pthread_mutex_t, %struct.atomic_b_t }
%struct.mutex_prof_data_t = type { %struct.nstime_t, %struct.nstime_t, i64, i64, i32, %struct.atomic_u32_t, i64, ptr, i64 }
%struct.nstime_t = type { i64 }
%struct.atomic_u32_t = type { i32 }
%union.pthread_mutex_t = type { %struct.__pthread_mutex_s }
%struct.__pthread_mutex_s = type { i32, i32, i32, i32, i32, i16, i16, %struct.__pthread_internal_list }
%struct.__pthread_internal_list = type { ptr, ptr }
%struct.atomic_b_t = type { i8 }
%struct.atomic_zd_t = type { i64 }
%struct.pa_central_s = type { %struct.hpa_central_s }
%struct.hpa_central_s = type { %struct.malloc_mutex_s, %struct.malloc_mutex_s, ptr, i64, ptr, i64, %struct.hpa_hooks_s }
%struct.hpa_hooks_s = type { ptr, ptr, ptr, ptr, ptr, ptr, ptr }
%struct.div_info_s = type { i32 }
%struct.sc_data_s = type { i32, i32, i32, i32, i32, i32, i32, i64, i64, i32, i64, i64, i8, [235 x %struct.sc_s] }
%struct.sc_s = type { i32, i32, i32, i32, i8, i8, i32, i32 }

@je_opt_dirty_decay_ms = hidden global i64 10000, align 8
@je_opt_muzzy_decay_ms = hidden global i64 0, align 8
@je_bin_infos = external global [39 x %struct.bin_info_s], align 16
@dirty_decay_ms_default = internal global %struct.atomic_zd_t zeroinitializer, align 8
@muzzy_decay_ms_default = internal global %struct.atomic_zd_t zeroinitializer, align 8
@nbins_total = internal global i32 0, align 4
@je_arena_pa_central_global = hidden global %struct.pa_central_s zeroinitializer, align 8
@je_arena_binind_div_info = hidden global [39 x %struct.div_info_s] zeroinitializer, align 16
@je_arena_bin_offsets = hidden global [39 x i32] zeroinitializer, align 16
@je_hpa_hooks_default = external global %struct.hpa_hooks_s, align 8

; Function Attrs: alwaysinline nounwind uwtable
define internal i32 @atomic_enum_to_builtin(i32 noundef %0) #4 {
  %2 = alloca i32, align 4
  %3 = alloca i32, align 4
  store i32 %0, ptr %3, align 4, !tbaa !17
  %4 = load i32, ptr %3, align 4, !tbaa !17
  switch i32 %4, label %10 [
    i32 0, label %5
    i32 1, label %6
    i32 2, label %7
    i32 3, label %8
    i32 4, label %9
  ]

5:                                                ; preds = %1
  store i32 0, ptr %2, align 4
  br label %12

6:                                                ; preds = %1
  store i32 2, ptr %2, align 4
  br label %12

7:                                                ; preds = %1
  store i32 3, ptr %2, align 4
  br label %12

8:                                                ; preds = %1
  store i32 4, ptr %2, align 4
  br label %12

9:                                                ; preds = %1
  store i32 5, ptr %2, align 4
  br label %12

10:                                               ; preds = %1
  br label %11

11:                                               ; preds = %10
  unreachable

12:                                               ; preds = %5, %6, %7, %8, %9
  %13 = load i32, ptr %2, align 4
  ret i32 %13
}

; Function Attrs: alwaysinline nounwind uwtable
define internal void @atomic_store_zd(ptr noundef %0, i64 noundef %1, i32 noundef %2) #4 {
  %4 = alloca ptr, align 8
  %5 = alloca i64, align 8
  %6 = alloca i32, align 4
  store ptr %0, ptr %4, align 8, !tbaa !120
  store i64 %1, ptr %5, align 8, !tbaa !21
  store i32 %2, ptr %6, align 4, !tbaa !17
  %7 = load ptr, ptr %4, align 8, !tbaa !120
  %8 = getelementptr inbounds nuw %struct.atomic_zd_t, ptr %7, i32 0, i32 0
  %9 = load i32, ptr %6, align 4, !tbaa !17
  %10 = call i32 @atomic_enum_to_builtin(i32 noundef %9)
  switch i32 %10, label %11 [
    i32 3, label %13
    i32 5, label %15
  ]

11:                                               ; preds = %3
  %12 = load i64, ptr %5, align 8
  store atomic i64 %12, ptr %8 monotonic, align 8
  br label %17

13:                                               ; preds = %3
  %14 = load i64, ptr %5, align 8
  store atomic i64 %14, ptr %8 release, align 8
  br label %17

15:                                               ; preds = %3
  %16 = load i64, ptr %5, align 8
  store atomic i64 %16, ptr %8 seq_cst, align 8
  br label %17

17:                                               ; preds = %15, %13, %11
  ret void
}

; Function Attrs: nounwind uwtable
define hidden zeroext i1 @je_arena_muzzy_decay_ms_default_set(i64 noundef %0) #0 {
  %2 = alloca i1, align 1
  %3 = alloca i64, align 8
  store i64 %0, ptr %3, align 8, !tbaa !21
  %4 = load i64, ptr %3, align 8, !tbaa !21
  %5 = call zeroext i1 @je_decay_ms_valid(i64 noundef %4)
  br i1 %5, label %7, label %6

6:                                                ; preds = %1
  store i1 true, ptr %2, align 1
  br label %9

7:                                                ; preds = %1
  %8 = load i64, ptr %3, align 8, !tbaa !21
  call void @atomic_store_zd(ptr noundef @muzzy_decay_ms_default, i64 noundef %8, i32 noundef 0)
  store i1 false, ptr %2, align 1
  br label %9

9:                                                ; preds = %7, %6
  %10 = load i1, ptr %2, align 1
  ret i1 %10
}

; Function Attrs: nounwind uwtable
define hidden zeroext i1 @je_arena_dirty_decay_ms_default_set(i64 noundef %0) #0 {
  %2 = alloca i1, align 1
  %3 = alloca i64, align 8
  store i64 %0, ptr %3, align 8, !tbaa !21
  %4 = load i64, ptr %3, align 8, !tbaa !21
  %5 = call zeroext i1 @je_decay_ms_valid(i64 noundef %4)
  br i1 %5, label %7, label %6

6:                                                ; preds = %1
  store i1 true, ptr %2, align 1
  br label %9

7:                                                ; preds = %1
  %8 = load i64, ptr %3, align 8, !tbaa !21
  call void @atomic_store_zd(ptr noundef @dirty_decay_ms_default, i64 noundef %8, i32 noundef 0)
  store i1 false, ptr %2, align 1
  br label %9

9:                                                ; preds = %7, %6
  %10 = load i1, ptr %2, align 1
  ret i1 %10
}

; Function Attrs: nounwind uwtable
define hidden zeroext i1 @je_arena_boot(ptr noundef %0, ptr noundef %1, i1 noundef zeroext %2) #0 {
  %4 = alloca ptr, align 8
  %5 = alloca ptr, align 8
  %6 = alloca i8, align 1
  %7 = alloca i32, align 4
  %8 = alloca ptr, align 8
  %9 = alloca i32, align 4
  %10 = alloca i32, align 4
  store ptr %0, ptr %4, align 8, !tbaa !238
  store ptr %1, ptr %5, align 8, !tbaa !192
  %11 = zext i1 %2 to i8
  store i8 %11, ptr %6, align 1, !tbaa !23
  %12 = load i64, ptr @je_opt_dirty_decay_ms, align 8, !tbaa !21
  %13 = call zeroext i1 @je_arena_dirty_decay_ms_default_set(i64 noundef %12)
  %14 = load i64, ptr @je_opt_muzzy_decay_ms, align 8, !tbaa !21
  %15 = call zeroext i1 @je_arena_muzzy_decay_ms_default_set(i64 noundef %14)
  call void @llvm.lifetime.start.p0(i64 4, ptr %7) #10
  store i32 0, ptr %7, align 4, !tbaa !17
  br label %16

16:                                               ; preds = %43, %3
  %17 = load i32, ptr %7, align 4, !tbaa !17
  %18 = zext i32 %17 to i64
  %19 = icmp ult i64 %18, 39
  br i1 %19, label %21, label %20

20:                                               ; preds = %16
  call void @llvm.lifetime.end.p0(i64 4, ptr %7) #10
  br label %46

21:                                               ; preds = %16
  call void @llvm.lifetime.start.p0(i64 8, ptr %8) #10
  %22 = load ptr, ptr %4, align 8, !tbaa !238
  %23 = getelementptr inbounds nuw %struct.sc_data_s, ptr %22, i32 0, i32 13
  %24 = load i32, ptr %7, align 4, !tbaa !17
  %25 = zext i32 %24 to i64
  %26 = getelementptr inbounds nuw [235 x %struct.sc_s], ptr %23, i64 0, i64 %25
  store ptr %26, ptr %8, align 8, !tbaa !240
  %27 = load i32, ptr %7, align 4, !tbaa !17
  %28 = zext i32 %27 to i64
  %29 = getelementptr inbounds nuw [39 x %struct.div_info_s], ptr @je_arena_binind_div_info, i64 0, i64 %28
  %30 = load ptr, ptr %8, align 8, !tbaa !240
  %31 = getelementptr inbounds nuw %struct.sc_s, ptr %30, i32 0, i32 1
  %32 = load i32, ptr %31, align 4, !tbaa !242
  %33 = shl i32 1, %32
  %34 = load ptr, ptr %8, align 8, !tbaa !240
  %35 = getelementptr inbounds nuw %struct.sc_s, ptr %34, i32 0, i32 3
  %36 = load i32, ptr %35, align 4, !tbaa !244
  %37 = load ptr, ptr %8, align 8, !tbaa !240
  %38 = getelementptr inbounds nuw %struct.sc_s, ptr %37, i32 0, i32 2
  %39 = load i32, ptr %38, align 4, !tbaa !245
  %40 = shl i32 %36, %39
  %41 = add i32 %33, %40
  %42 = zext i32 %41 to i64
  call void @je_div_init(ptr noundef %29, i64 noundef %42)
  call void @llvm.lifetime.end.p0(i64 8, ptr %8) #10
  br label %43

43:                                               ; preds = %21
  %44 = load i32, ptr %7, align 4, !tbaa !17
  %45 = add i32 %44, 1
  store i32 %45, ptr %7, align 4, !tbaa !17
  br label %16, !llvm.loop !246

46:                                               ; preds = %20
  call void @llvm.lifetime.start.p0(i64 4, ptr %9) #10
  store i32 78952, ptr %9, align 4, !tbaa !17
  call void @llvm.lifetime.start.p0(i64 4, ptr %10) #10
  store i32 0, ptr %10, align 4, !tbaa !17
  br label %47

47:                                               ; preds = %74, %46
  %48 = load i32, ptr %10, align 4, !tbaa !17
  %49 = zext i32 %48 to i64
  %50 = icmp ult i64 %49, 39
  br i1 %50, label %52, label %51

51:                                               ; preds = %47
  call void @llvm.lifetime.end.p0(i64 4, ptr %10) #10
  br label %77

52:                                               ; preds = %47
  %53 = load i32, ptr %9, align 4, !tbaa !17
  %54 = load i32, ptr %10, align 4, !tbaa !17
  %55 = zext i32 %54 to i64
  %56 = getelementptr inbounds nuw [39 x i32], ptr @je_arena_bin_offsets, i64 0, i64 %55
  store i32 %53, ptr %56, align 4, !tbaa !17
  %57 = load i32, ptr %10, align 4, !tbaa !17
  %58 = zext i32 %57 to i64
  %59 = getelementptr inbounds nuw [39 x %struct.bin_info_s], ptr @je_bin_infos, i64 0, i64 %58
  %60 = getelementptr inbounds nuw %struct.bin_info_s, ptr %59, i32 0, i32 3
  %61 = load i32, ptr %60, align 4, !tbaa !121
  %62 = load i32, ptr @nbins_total, align 4, !tbaa !17
  %63 = add i32 %62, %61
  store i32 %63, ptr @nbins_total, align 4, !tbaa !17
  %64 = load i32, ptr %10, align 4, !tbaa !17
  %65 = zext i32 %64 to i64
  %66 = getelementptr inbounds nuw [39 x %struct.bin_info_s], ptr @je_bin_infos, i64 0, i64 %65
  %67 = getelementptr inbounds nuw %struct.bin_info_s, ptr %66, i32 0, i32 3
  %68 = load i32, ptr %67, align 4, !tbaa !121
  %69 = zext i32 %68 to i64
  %70 = mul i64 %69, 224
  %71 = trunc i64 %70 to i32
  %72 = load i32, ptr %9, align 4, !tbaa !17
  %73 = add i32 %72, %71
  store i32 %73, ptr %9, align 4, !tbaa !17
  br label %74

74:                                               ; preds = %52
  %75 = load i32, ptr %10, align 4, !tbaa !17
  %76 = add i32 %75, 1
  store i32 %76, ptr %10, align 4, !tbaa !17
  br label %47, !llvm.loop !247

77:                                               ; preds = %51
  %78 = load ptr, ptr %5, align 8, !tbaa !192
  %79 = load i8, ptr %6, align 1, !tbaa !23, !range !25, !noundef !26
  %80 = trunc i8 %79 to i1
  %81 = call zeroext i1 @je_pa_central_init(ptr noundef @je_arena_pa_central_global, ptr noundef %78, i1 noundef zeroext %80, ptr noundef @je_hpa_hooks_default)
  call void @llvm.lifetime.end.p0(i64 4, ptr %9) #10
  ret i1 %81
}