; Function Attrs: nounwind uwtable
define hidden zeroext i1 @je_arena_boot(ptr noundef readonly captures(none) %0, ptr noundef %1, i1 noundef zeroext %2) local_unnamed_addr #0 {
  %4 = load i64, ptr @je_opt_dirty_decay_ms, align 8, !tbaa !11
  %5 = tail call zeroext i1 @je_decay_ms_valid(i64 noundef %4) #16
  br i1 %5, label %atomic_store_zd.exit.i, label %je_arena_dirty_decay_ms_default_set.exit

atomic_store_zd.exit.i:                           ; preds = %3
  store atomic i64 %4, ptr @dirty_decay_ms_default.0 monotonic, align 8
  br label %je_arena_dirty_decay_ms_default_set.exit

je_arena_dirty_decay_ms_default_set.exit:         ; preds = %3, %atomic_store_zd.exit.i
  %6 = load i64, ptr @je_opt_muzzy_decay_ms, align 8, !tbaa !11
  %7 = tail call zeroext i1 @je_decay_ms_valid(i64 noundef %6) #16
  br i1 %7, label %atomic_store_zd.exit.i21, label %je_arena_muzzy_decay_ms_default_set.exit

atomic_store_zd.exit.i21:                         ; preds = %je_arena_dirty_decay_ms_default_set.exit
  store atomic i64 %6, ptr @muzzy_decay_ms_default.0 monotonic, align 8
  br label %je_arena_muzzy_decay_ms_default_set.exit

je_arena_muzzy_decay_ms_default_set.exit:         ; preds = %je_arena_dirty_decay_ms_default_set.exit, %atomic_store_zd.exit.i21
  %8 = getelementptr inbounds nuw i8, ptr %0, i64 76
  br label %9

.preheader:                                       ; preds = %9
  %nbins_total.promoted = load i32, ptr @nbins_total, align 4, !tbaa !4
  br label %24

9:                                                ; preds = %je_arena_muzzy_decay_ms_default_set.exit, %9
  %indvars.iv = phi i64 [ 0, %je_arena_muzzy_decay_ms_default_set.exit ], [ %indvars.iv.next, %9 ]
  %10 = getelementptr inbounds nuw [235 x %struct.sc_s], ptr %8, i64 0, i64 %indvars.iv
  %11 = getelementptr inbounds nuw [39 x %struct.div_info_s], ptr @je_arena_binind_div_info, i64 0, i64 %indvars.iv
  %12 = getelementptr inbounds nuw i8, ptr %10, i64 4
  %13 = load i32, ptr %12, align 4, !tbaa !219
  %14 = shl nuw i32 1, %13
  %15 = getelementptr inbounds nuw i8, ptr %10, i64 12
  %16 = load i32, ptr %15, align 4, !tbaa !221
  %17 = getelementptr inbounds nuw i8, ptr %10, i64 8
  %18 = load i32, ptr %17, align 4, !tbaa !222
  %19 = shl i32 %16, %18
  %20 = add i32 %19, %14
  %21 = zext i32 %20 to i64
  tail call void @je_div_init(ptr noundef nonnull %11, i64 noundef %21) #16
  %indvars.iv.next = add nuw nsw i64 %indvars.iv, 1
  %exitcond.not = icmp eq i64 %indvars.iv.next, 39
  br i1 %exitcond.not, label %.preheader, label %9, !llvm.loop !223

22:                                               ; preds = %24
  store i32 %29, ptr @nbins_total, align 4, !tbaa !4
  %23 = tail call zeroext i1 @je_pa_central_init(ptr noundef nonnull @je_arena_pa_central_global, ptr noundef %1, i1 noundef zeroext %2, ptr noundef nonnull @je_hpa_hooks_default) #16
  ret i1 %23

24:                                               ; preds = %.preheader, %24
  %indvars.iv26 = phi i64 [ 0, %.preheader ], [ %indvars.iv.next27, %24 ]
  %.01623 = phi i32 [ 78952, %.preheader ], [ %31, %24 ]
  %25 = phi i32 [ %nbins_total.promoted, %.preheader ], [ %29, %24 ]
  %26 = getelementptr inbounds nuw [39 x i32], ptr @je_arena_bin_offsets, i64 0, i64 %indvars.iv26
  store i32 %.01623, ptr %26, align 4, !tbaa !4
  %27 = getelementptr inbounds nuw [39 x %struct.bin_info_s], ptr @je_bin_infos, i64 0, i64 %indvars.iv26, i32 3
  %28 = load i32, ptr %27, align 4, !tbaa !105
  %29 = add i32 %25, %28
  %30 = mul i32 %28, 224
  %31 = add i32 %30, %.01623
  %indvars.iv.next27 = add nuw nsw i64 %indvars.iv26, 1
  %exitcond29.not = icmp eq i64 %indvars.iv.next27, 39
  br i1 %exitcond29.not, label %22, label %24, !llvm.loop !224
}